; Function Attrs: nounwind uwtable
define ptr @l___private_Std_Sync_Channel_0__Std_CloseableChannel_Sync_forIn___rarg___lambda__1(ptr noundef %0, ptr noundef %1, ptr noundef %2, ptr noundef %3, ptr noundef %4) #1 {
  %6 = ptrtoint ptr %4 to i64
  %7 = and i64 %6, 1
  %.not.i47 = icmp eq i64 %7, 0
  br i1 %.not.i47, label %11, label %8

8:                                                ; preds = %5
  %9 = lshr i64 %6, 1
  %10 = trunc i64 %9 to i32
  br label %lean_obj_tag.exit

11:                                               ; preds = %5
  %12 = getelementptr i8, ptr %4, i64 4
  %.val.i = load i32, ptr %12, align 4
  %13 = lshr i32 %.val.i, 24
  br label %lean_obj_tag.exit

lean_obj_tag.exit:                                ; preds = %8, %11
  %.0.i = phi i32 [ %10, %8 ], [ %13, %11 ]
  %14 = icmp eq i32 %.0.i, 0
  br i1 %14, label %15, label %97

15:                                               ; preds = %lean_obj_tag.exit
  %16 = ptrtoint ptr %3 to i64
  %17 = and i64 %16, 1
  %.not60 = icmp eq i64 %17, 0
  br i1 %.not60, label %18, label %lean_dec.exit31

18:                                               ; preds = %15
  %19 = load i32, ptr %3, align 4, !tbaa !4
  %20 = icmp sgt i32 %19, 1
  br i1 %20, label %21, label %23, !prof !9

21:                                               ; preds = %18
  %22 = add nsw i32 %19, -1
  store i32 %22, ptr %3, align 4, !tbaa !4
  br label %lean_dec.exit31

23:                                               ; preds = %18
  %.not.i = icmp eq i32 %19, 0
  br i1 %.not.i, label %lean_dec.exit31, label %24

24:                                               ; preds = %23
  tail call void @lean_dec_ref_cold(ptr noundef nonnull %3) #7
  br label %lean_dec.exit31

lean_dec.exit31:                                  ; preds = %24, %23, %21, %15
  %25 = ptrtoint ptr %2 to i64
  %26 = and i64 %25, 1
  %.not61 = icmp eq i64 %26, 0
  br i1 %.not61, label %27, label %lean_dec.exit30

27:                                               ; preds = %lean_dec.exit31
  %28 = load i32, ptr %2, align 4, !tbaa !4
  %29 = icmp sgt i32 %28, 1
  br i1 %29, label %30, label %32, !prof !9

30:                                               ; preds = %27
  %31 = add nsw i32 %28, -1
  store i32 %31, ptr %2, align 4, !tbaa !4
  br label %lean_dec.exit30

32:                                               ; preds = %27
  %.not.i35 = icmp eq i32 %28, 0
  br i1 %.not.i35, label %lean_dec.exit30, label %33

33:                                               ; preds = %32
  tail call void @lean_dec_ref_cold(ptr noundef nonnull %2) #7
  br label %lean_dec.exit30

lean_dec.exit30:                                  ; preds = %33, %32, %30, %lean_dec.exit31
  %34 = ptrtoint ptr %1 to i64
  %35 = and i64 %34, 1
  %.not62 = icmp eq i64 %35, 0
  br i1 %.not62, label %36, label %lean_dec.exit29

36:                                               ; preds = %lean_dec.exit30
  %37 = load i32, ptr %1, align 4, !tbaa !4
  %38 = icmp sgt i32 %37, 1
  br i1 %38, label %39, label %41, !prof !9

39:                                               ; preds = %36
  %40 = add nsw i32 %37, -1
  store i32 %40, ptr %1, align 4, !tbaa !4
  br label %lean_dec.exit29

41:                                               ; preds = %36
  %.not.i37 = icmp eq i32 %37, 0
  br i1 %.not.i37, label %lean_dec.exit29, label %42

42:                                               ; preds = %41
  tail call void @lean_dec_ref_cold(ptr noundef nonnull %1) #7
  br label %lean_dec.exit29

lean_dec.exit29:                                  ; preds = %42, %41, %39, %lean_dec.exit30
  %43 = getelementptr inbounds nuw i8, ptr %4, i64 8
  %44 = load ptr, ptr %43, align 8, !tbaa !10
  %45 = ptrtoint ptr %44 to i64
  %46 = and i64 %45, 1
  %.not63 = icmp eq i64 %46, 0
  br i1 %.not63, label %47, label %lean_inc.exit34

47:                                               ; preds = %lean_dec.exit29
  %.val.i48 = load i32, ptr %44, align 4, !tbaa !4
  %48 = icmp sgt i32 %.val.i48, 0
  br i1 %48, label %49, label %51, !prof !9

49:                                               ; preds = %47
  %50 = add nuw i32 %.val.i48, 1
  store i32 %50, ptr %44, align 4, !tbaa !4
  br label %lean_inc.exit34

51:                                               ; preds = %47
  %.not.i49 = icmp eq i32 %.val.i48, 0
  br i1 %.not.i49, label %lean_inc.exit34, label %52

52:                                               ; preds = %51
  tail call void @lean_inc_ref_cold(ptr noundef nonnull %44) #7
  br label %lean_inc.exit34

lean_inc.exit34:                                  ; preds = %52, %51, %49, %lean_dec.exit29
  br i1 %.not.i47, label %53, label %lean_dec.exit28

53:                                               ; preds = %lean_inc.exit34
  %54 = load i32, ptr %4, align 4, !tbaa !4
  %55 = icmp sgt i32 %54, 1
  br i1 %55, label %56, label %58, !prof !9

56:                                               ; preds = %53
  %57 = add nsw i32 %54, -1
  store i32 %57, ptr %4, align 4, !tbaa !4
  br label %lean_dec.exit28

58:                                               ; preds = %53
  %.not.i39 = icmp eq i32 %54, 0
  br i1 %.not.i39, label %lean_dec.exit28, label %59

59:                                               ; preds = %58
  tail call void @lean_dec_ref_cold(ptr noundef nonnull %4) #7
  br label %lean_dec.exit28

lean_dec.exit28:                                  ; preds = %59, %58, %56, %lean_inc.exit34
  %60 = getelementptr inbounds nuw i8, ptr %0, i64 8
  %61 = load ptr, ptr %60, align 8, !tbaa !10
  %62 = ptrtoint ptr %61 to i64
  %63 = and i64 %62, 1
  %.not65 = icmp eq i64 %63, 0
  br i1 %.not65, label %64, label %lean_inc.exit33

64:                                               ; preds = %lean_dec.exit28
  %.val.i50 = load i32, ptr %61, align 4, !tbaa !4
  %65 = icmp sgt i32 %.val.i50, 0
  br i1 %65, label %66, label %68, !prof !9

66:                                               ; preds = %64
  %67 = add nuw i32 %.val.i50, 1
  store i32 %67, ptr %61, align 4, !tbaa !4
  br label %lean_inc.exit33

68:                                               ; preds = %64
  %.not.i51 = icmp eq i32 %.val.i50, 0
  br i1 %.not.i51, label %lean_inc.exit33, label %69

69:                                               ; preds = %68
  tail call void @lean_inc_ref_cold(ptr noundef nonnull %61) #7
  br label %lean_inc.exit33

lean_inc.exit33:                                  ; preds = %69, %68, %66, %lean_dec.exit28
  %70 = ptrtoint ptr %0 to i64
  %71 = and i64 %70, 1
  %.not66 = icmp eq i64 %71, 0
  br i1 %.not66, label %72, label %lean_dec.exit27

72:                                               ; preds = %lean_inc.exit33
  %73 = load i32, ptr %0, align 4, !tbaa !4
  %74 = icmp sgt i32 %73, 1
  br i1 %74, label %75, label %77, !prof !9

75:                                               ; preds = %72
  %76 = add nsw i32 %73, -1
  store i32 %76, ptr %0, align 4, !tbaa !4
  br label %lean_dec.exit27

77:                                               ; preds = %72
  %.not.i41 = icmp eq i32 %73, 0
  br i1 %.not.i41, label %lean_dec.exit27, label %78

78:                                               ; preds = %77
  tail call void @lean_dec_ref_cold(ptr noundef nonnull %0) #7
  br label %lean_dec.exit27

lean_dec.exit27:                                  ; preds = %78, %77, %75, %lean_inc.exit33
  %79 = getelementptr inbounds nuw i8, ptr %61, i64 16
  %80 = load ptr, ptr %79, align 8, !tbaa !10
  %81 = ptrtoint ptr %80 to i64
  %82 = and i64 %81, 1
  %.not67 = icmp eq i64 %82, 0
  br i1 %.not67, label %83, label %lean_inc.exit32

83:                                               ; preds = %lean_dec.exit27
  %.val.i53 = load i32, ptr %80, align 4, !tbaa !4
  %84 = icmp sgt i32 %.val.i53, 0
  br i1 %84, label %85, label %87, !prof !9

85:                                               ; preds = %83
  %86 = add nuw i32 %.val.i53, 1
  store i32 %86, ptr %80, align 4, !tbaa !4
  br label %lean_inc.exit32

87:                                               ; preds = %83
  %.not.i54 = icmp eq i32 %.val.i53, 0
  br i1 %.not.i54, label %lean_inc.exit32, label %88

88:                                               ; preds = %87
  tail call void @lean_inc_ref_cold(ptr noundef nonnull %80) #7
  br label %lean_inc.exit32

lean_inc.exit32:                                  ; preds = %88, %87, %85, %lean_dec.exit27
  br i1 %.not65, label %89, label %lean_dec.exit26

89:                                               ; preds = %lean_inc.exit32
  %90 = load i32, ptr %61, align 4, !tbaa !4
  %91 = icmp sgt i32 %90, 1
  br i1 %91, label %92, label %94, !prof !9

92:                                               ; preds = %89
  %93 = add nsw i32 %90, -1
  store i32 %93, ptr %61, align 4, !tbaa !4
  br label %lean_dec.exit26

94:                                               ; preds = %89
  %.not.i43 = icmp eq i32 %90, 0
  br i1 %.not.i43, label %lean_dec.exit26, label %95

95:                                               ; preds = %94
  tail call void @lean_dec_ref_cold(ptr noundef nonnull %61) #7
  br label %lean_dec.exit26

lean_dec.exit26:                                  ; preds = %95, %94, %92, %lean_inc.exit32
  %96 = tail call ptr @lean_apply_2(ptr noundef %80, ptr noundef nonnull inttoptr (i64 1 to ptr), ptr noundef %44) #7
  br label %116

97:                                               ; preds = %lean_obj_tag.exit
  %98 = getelementptr inbounds nuw i8, ptr %4, i64 8
  %99 = load ptr, ptr %98, align 8, !tbaa !10
  %100 = ptrtoint ptr %99 to i64
  %101 = and i64 %100, 1
  %.not = icmp eq i64 %101, 0
  br i1 %.not, label %102, label %lean_inc.exit

102:                                              ; preds = %97
  %.val.i56 = load i32, ptr %99, align 4, !tbaa !4
  %103 = icmp sgt i32 %.val.i56, 0
  br i1 %103, label %104, label %106, !prof !9

104:                                              ; preds = %102
  %105 = add nuw i32 %.val.i56, 1
  store i32 %105, ptr %99, align 4, !tbaa !4
  br label %lean_inc.exit

106:                                              ; preds = %102
  %.not.i57 = icmp eq i32 %.val.i56, 0
  br i1 %.not.i57, label %lean_inc.exit, label %107

107:                                              ; preds = %106
  tail call void @lean_inc_ref_cold(ptr noundef nonnull %99) #7
  br label %lean_inc.exit

lean_inc.exit:                                    ; preds = %107, %106, %104, %97
  br i1 %.not.i47, label %108, label %lean_dec.exit

108:                                              ; preds = %lean_inc.exit
  %109 = load i32, ptr %4, align 4, !tbaa !4
  %110 = icmp sgt i32 %109, 1
  br i1 %110, label %111, label %113, !prof !9

111:                                              ; preds = %108
  %112 = add nsw i32 %109, -1
  store i32 %112, ptr %4, align 4, !tbaa !4
  br label %lean_dec.exit

113:                                              ; preds = %108
  %.not.i45 = icmp eq i32 %109, 0
  br i1 %.not.i45, label %lean_dec.exit, label %114

114:                                              ; preds = %113
  tail call void @lean_dec_ref_cold(ptr noundef nonnull %4) #7
  br label %lean_dec.exit

lean_dec.exit:                                    ; preds = %114, %113, %111, %lean_inc.exit
  %115 = tail call ptr @l___private_Std_Sync_Channel_0__Std_CloseableChannel_Sync_forIn___rarg(ptr noundef %0, ptr noundef %1, ptr noundef %2, ptr noundef %3, ptr noundef %99)
  br label %116

116:                                              ; preds = %lean_dec.exit, %lean_dec.exit26
  %.0 = phi ptr [ %96, %lean_dec.exit26 ], [ %115, %lean_dec.exit ]
  ret ptr %.0
}